(lp1
(lp2
F0.59338186900182133
aF-2.1005557292337009
aF1.9822769451515772
aF-3.2275327767419268
aF-1.6685660302096377
aF-2.0665846696773045
aa(lp3
F0.59338186900182133
aF-2.1006122947752548
aF1.9825166935655503
aF-3.2277272088068001
aF-1.6685012195213469
aF-1.2900612682035693
aa(lp4
F-0.38882344089023846
aF-2.0647866848011249
aF1.8766911492202123
aF-3.1182089500563874
aF-0.63623733476974564
aF-1.2916721277942953
aa(lp5
F-0.38881401329997978
aF-2.0537544100232132
aF1.8797458610369278
aF-3.1176665919740461
aF-0.63814838721013967
aF-1.9269458233069807
aa(lp6
F-0.59296299637466365
aF-1.5429994702042755
aF1.4194490141398264
aF-3.2274927134780662
aF-0.12252211321213036
aF-1.9266303146178831
aa(lp7
F-0.59296299637466365
aF-1.5429711874334988
aF1.419515007271638
aF-3.2299051739042981
aF-0.12252211321213036
aF-1.2296904835713898
aa(lp8
F-0.59449303994519376
aF-1.5326971977085588
aF0.90535246974905359
aF-2.7447482883920866
aF-0.12258693588464631
aF-1.229625672883099
aa(lp9
F-0.5943893364523456
aF-1.532678342528041
aF0.90557873191526639
aF-3.3237564194825566
aF-0.12263554390086462
aF-1.229884915636263
aa(lp10
F-0.59232322412072946
aF-2.1811030662305297
aF1.4977322530180155
aF-2.7133238171024137
aF-0.28474307425713441
aF-1.9281200856001597
aa(lp11
F-0.59188548991973366
aF-2.6535797397581997
aF1.4921696360111874
aF-1.7325397403675558
aF-0.51687301660002127
aF-1.927909450863214
aa(lp12
F-0.5921400348567234
aF-2.5916233614800004
aF1.5280141011658346
aF-1.842106619118411
aF-0.51490568623946942
aF-1.3382212541737815
aa(lp13
F0.62246365202134468
aF-1.3510397477420051
aF1.184170997286107
aF-3.1330991098174663
aF-1.6218472191897098
aF-1.3382698621899998
aa(lp14
F0.62052009836309419
aF-1.3503999690964845
aF1.184170997286107
aF-3.1329370711125137
aF-1.6220578539266555
aF-2.0124007411527938
aa(lp15
F0.20640364721147778
aF-1.179163304424685
aF0.83985244245276025
aF-2.7122877209381744
aF-0.87257737127474932
aF-2.143853882543393
aa(lp16
F0.20625280576733573
aF-1.1752708281754263
aF0.83826177468317642
aF-2.7138823778568275
aF-0.87257737127474932
aF-1.3364645705343996
aa(lp17
F0.33701442222120481
aF-2.9855959028960255
aF2.0414372215991392
aF-2.3538707129875469
aF-1.4507438382658533
aF-1.3376541606512342
aa(lp18
F0.33757471509556647
aF-2.2751299462131556
aF1.1446697456386721
aF-1.8877407259578822
aF-1.4504683808563907
aF-1.3376217553070884
aa(lp19
F-1.7091583962093209
aF-1.7038732381830384
aF1.4069863470183179
aF-2.6527509424856457
aF0.91040609279528195
aF-1.3375330840270099
aa(lp20
F-1.9636482824634989
aF-1.7086829518528264
aF1.4063842851254194
aF-2.6689936059169295
aF1.2785309820520556
aF-2.1899979421210594
aa(lp21
F-1.2633903287653432
aF-1.1255279282313295
aF1.0496731149598784
aF-2.9009777122269371
aF0.71203206880793546
aF-1.4303473466083858
aa(lp22
F-2.0293610920698315
aF-1.3433450188801619
aF1.0611848929573231
aF-2.6999396429799094
aF1.3565361102169415
aF-1.4303311439363133
aa.